; Function Attrs: mustprogress uwtable
define hidden void @_ZN7card2bvC2ER11ast_managerRK10params_refR20dependent_expr_state(ptr noundef nonnull align 8 dereferenceable(48) %this, ptr noundef nonnull align 8 dereferenceable(976) %m, ptr noundef nonnull align 8 dereferenceable(8) %p, ptr noundef nonnull align 8 dereferenceable(160) %fmls) unnamed_addr #3 align 2 personality ptr @__gxx_personality_v0 {
entry:
  %m2.i = getelementptr inbounds i8, ptr %this, i64 8
  store ptr %m, ptr %m2.i, align 8
  %m_fmls.i = getelementptr inbounds i8, ptr %this, i64 16
  store ptr %fmls, ptr %m_fmls.i, align 8
  %m_trail.i = getelementptr inbounds i8, ptr %this, i64 24
  %m_trail3.i = getelementptr inbounds i8, ptr %fmls, i64 104
  store ptr %m_trail3.i, ptr %m_trail.i, align 8
  store ptr getelementptr inbounds ({ [13 x ptr] }, ptr @_ZTV7card2bv, i64 0, i32 0, i64 2), ptr %this, align 8
  %m_stats = getelementptr inbounds i8, ptr %this, i64 32
  store i32 0, ptr %m_stats, align 8
  %m_params = getelementptr inbounds i8, ptr %this, i64 40
  tail call void @_ZN10params_refC1ERKS_(ptr noundef nonnull align 8 dereferenceable(8) %m_params, ptr noundef nonnull align 8 dereferenceable(8) %p)
  ret void
}